target datalayout = "e-m:e-p270:32:32-p271:32:32-p272:64:64-i64:64-i128:128-f80:128-n8:16:32:64-S128"
target triple = "x86_64-pc-linux-gnu"

%struct.cli_ctx_tag = type { ptr, ptr, ptr, ptr, ptr, ptr, ptr, i64, ptr, i32, i32, ptr, i32, i32, ptr, [16 x i8], ptr, ptr, ptr, ptr, ptr, ptr, %struct.timeval, i8, i8 }
%struct.timeval = type { i64, i64 }
%struct.cl_engine = type { i32, i32, i32, [2 x i32], i32, i32, i32, ptr, i32, i64, i32, i32, i64, i64, i32, i32, i32, i32, ptr, ptr, ptr, ptr, ptr, ptr, ptr, ptr, ptr, ptr, ptr, ptr, ptr, ptr, ptr, ptr, ptr, ptr, ptr, i64, ptr, %struct.crtmgr, ptr, ptr, ptr, ptr, ptr, ptr, ptr, ptr, ptr, ptr, ptr, ptr, ptr, ptr, ptr, ptr, ptr, %struct.cli_all_bc, [7 x ptr], [7 x i32], i32, i32, i32, i32, i64, i64, i64, i64, i64, ptr, ptr, ptr, ptr, ptr, ptr, ptr, ptr, ptr, i32, i32, i32, i64, i64, i64, ptr }
%struct.crtmgr = type { ptr, i32 }
%struct.cli_all_bc = type { ptr, i32, ptr, %struct.cli_environment, i32 }
%struct.cli_environment = type { i32, i32, i32, i32, i32, i32, i32, [65 x i8], [65 x i8], [65 x i8], [65 x i8], [65 x i8], [65 x i8], [65 x i8], i8, i8, i8, i8, i8, i8, i8, i8, i8 }
%struct.stat = type { i64, i64, i64, i32, i32, i32, i32, i64, i64, i64, i64, %struct.timespec, %struct.timespec, %struct.timespec, [3 x i64] }
%struct.timespec = type { i64, i64 }

@.str.142 = private unnamed_addr constant [40 x i8] c"cli_decode_ole_object: can't create %s\0A\00", align 1
@.str.143 = private unnamed_addr constant [39 x i8] c"cli_decode_ole_object: decoding to %s\0A\00", align 1
@.str.144 = private unnamed_addr constant [55 x i8] c"cli_decode_ole_object: Failed to remove temp file: %s\0A\00", align 1

; Function Attrs: nounwind uwtable
define internal i32 @vba_endian_convert_32(i32 noundef %0, i32 noundef %1) #0 {
  %3 = alloca i32, align 4
  %4 = alloca i32, align 4
  %5 = alloca i32, align 4
  store i32 %0, ptr %4, align 4
  store i32 %1, ptr %5, align 4
  %6 = load i32, ptr %5, align 4
  %7 = icmp ne i32 %6, 0
  br i1 %7, label %8, label %24

8:                                                ; preds = %2
  %9 = load i32, ptr %4, align 4
  %10 = and i32 %9, 255
  %11 = shl i32 %10, 24
  %12 = load i32, ptr %4, align 4
  %13 = and i32 %12, 65280
  %14 = shl i32 %13, 8
  %15 = or i32 %11, %14
  %16 = load i32, ptr %4, align 4
  %17 = and i32 %16, 16711680
  %18 = lshr i32 %17, 8
  %19 = or i32 %15, %18
  %20 = load i32, ptr %4, align 4
  %21 = and i32 %20, -16777216
  %22 = lshr i32 %21, 24
  %23 = or i32 %19, %22
  store i32 %23, ptr %3, align 4
  br label %26

24:                                               ; preds = %2
  %25 = load i32, ptr %4, align 4
  store i32 %25, ptr %3, align 4
  br label %26

26:                                               ; preds = %24, %8
  %27 = load i32, ptr %3, align 4
  ret i32 %27
}

; Function Attrs: nounwind uwtable
define internal void @ole_copy_file_data(i32 noundef %0, i32 noundef %1, i32 noundef %2) #0 {
  %4 = alloca i32, align 4
  %5 = alloca i32, align 4
  %6 = alloca i32, align 4
  %7 = alloca [8192 x i8], align 16
  %8 = alloca i64, align 8
  store i32 %0, ptr %4, align 4
  store i32 %1, ptr %5, align 4
  store i32 %2, ptr %6, align 4
  br label %9

9:                                                ; preds = %49, %3
  %10 = load i32, ptr %6, align 4
  %11 = icmp ugt i32 %10, 0
  br i1 %11, label %12, label %50

12:                                               ; preds = %9
  %13 = load i32, ptr %6, align 4
  %14 = zext i32 %13 to i64
  %15 = icmp ult i64 8192, %14
  br i1 %15, label %16, label %17

16:                                               ; preds = %12
  br label %20

17:                                               ; preds = %12
  %18 = load i32, ptr %6, align 4
  %19 = zext i32 %18 to i64
  br label %20

20:                                               ; preds = %17, %16
  %21 = phi i64 [ 8192, %16 ], [ %19, %17 ]
  store i64 %21, ptr %8, align 8
  %22 = load i32, ptr %4, align 4
  %23 = getelementptr inbounds [8192 x i8], ptr %7, i64 0, i64 0
  %24 = load i64, ptr %8, align 8
  %25 = call i64 @cli_readn(i32 noundef %22, ptr noundef %23, i64 noundef %24)
  %26 = load i64, ptr %8, align 8
  %27 = icmp ne i64 %25, %26
  br i1 %27, label %28, label %29

28:                                               ; preds = %20
  br label %50

29:                                               ; preds = %20
  %30 = load i32, ptr %5, align 4
  %31 = getelementptr inbounds [8192 x i8], ptr %7, i64 0, i64 0
  %32 = load i64, ptr %8, align 8
  %33 = call i64 @cli_writen(i32 noundef %30, ptr noundef %31, i64 noundef %32)
  %34 = load i64, ptr %8, align 8
  %35 = icmp ne i64 %33, %34
  br i1 %35, label %36, label %37

36:                                               ; preds = %29
  br label %50

37:                                               ; preds = %29
  %38 = load i64, ptr %8, align 8
  %39 = load i32, ptr %6, align 4
  %40 = zext i32 %39 to i64
  %41 = icmp ugt i64 %38, %40
  br i1 %41, label %42, label %43

42:                                               ; preds = %37
  br label %50

43:                                               ; preds = %37
  %44 = load i64, ptr %8, align 8
  %45 = load i32, ptr %6, align 4
  %46 = zext i32 %45 to i64
  %47 = sub i64 %46, %44
  %48 = trunc i64 %47 to i32
  store i32 %48, ptr %6, align 4
  br label %49

49:                                               ; preds = %43
  br label %9

50:                                               ; preds = %42, %36, %28, %9
  ret void
}

; Function Attrs: nounwind uwtable
define internal i32 @read_uint32(i32 noundef %0, ptr noundef %1, i32 noundef %2) #0 {
  %4 = alloca i32, align 4
  %5 = alloca i32, align 4
  %6 = alloca ptr, align 8
  %7 = alloca i32, align 4
  store i32 %0, ptr %5, align 4
  store ptr %1, ptr %6, align 8
  store i32 %2, ptr %7, align 4
  %8 = load i32, ptr %5, align 4
  %9 = load ptr, ptr %6, align 8
  %10 = call i64 @cli_readn(i32 noundef %8, ptr noundef %9, i64 noundef 4)
  %11 = icmp ne i64 %10, 4
  br i1 %11, label %12, label %13

12:                                               ; preds = %3
  store i32 0, ptr %4, align 4
  br label %19

13:                                               ; preds = %3
  %14 = load ptr, ptr %6, align 8
  %15 = load i32, ptr %14, align 4
  %16 = load i32, ptr %7, align 4
  %17 = call i32 @vba_endian_convert_32(i32 noundef %15, i32 noundef %16)
  %18 = load ptr, ptr %6, align 8
  store i32 %17, ptr %18, align 4
  store i32 1, ptr %4, align 4
  br label %19

19:                                               ; preds = %13, %12
  %20 = load i32, ptr %4, align 4
  ret i32 %20
}

; Function Attrs: nounwind uwtable
define i32 @cli_scan_ole10(i32 noundef %0, ptr noundef %1) #0 {
  %3 = alloca i32, align 4
  %4 = alloca i32, align 4
  %5 = alloca ptr, align 8
  %6 = alloca i32, align 4
  %7 = alloca i32, align 4
  %8 = alloca i32, align 4
  %9 = alloca %struct.stat, align 8
  %10 = alloca ptr, align 8
  store i32 %0, ptr %4, align 4
  store ptr %1, ptr %5, align 8
  %11 = load i32, ptr %4, align 4
  %12 = icmp slt i32 %11, 0
  br i1 %12, label %13, label %14

13:                                               ; preds = %2
  store i32 0, ptr %3, align 4
  br label %117

14:                                               ; preds = %2
  %15 = load i32, ptr %4, align 4
  %16 = call i64 @lseek(i32 noundef %15, i64 noundef 0, i32 noundef 0) #8
  %17 = load i32, ptr %4, align 4
  %18 = call i32 @read_uint32(i32 noundef %17, ptr noundef %8, i32 noundef 0)
  %19 = icmp ne i32 %18, 0
  br i1 %19, label %21, label %20

20:                                               ; preds = %14
  store i32 0, ptr %3, align 4
  br label %117

21:                                               ; preds = %14
  %22 = load i32, ptr %4, align 4
  %23 = call i32 @fstat(i32 noundef %22, ptr noundef %9) #8
  %24 = icmp eq i32 %23, -1
  br i1 %24, label %25, label %26

25:                                               ; preds = %21
  store i32 11, ptr %3, align 4
  br label %117

26:                                               ; preds = %21
  %27 = getelementptr inbounds %struct.stat, ptr %9, i32 0, i32 8
  %28 = load i64, ptr %27, align 8
  %29 = load i32, ptr %8, align 4
  %30 = zext i32 %29 to i64
  %31 = sub nsw i64 %28, %30
  %32 = icmp sge i64 %31, 4
  br i1 %32, label %33, label %64

33:                                               ; preds = %26
  %34 = load i32, ptr %4, align 4
  %35 = call i64 @lseek(i32 noundef %34, i64 noundef 2, i32 noundef 1) #8
  %36 = icmp eq i64 %35, -1
  br i1 %36, label %37, label %38

37:                                               ; preds = %33
  store i32 0, ptr %3, align 4
  br label %117

38:                                               ; preds = %33
  %39 = load i32, ptr %4, align 4
  %40 = call i32 @skip_past_nul(i32 noundef %39)
  %41 = icmp ne i32 %40, 0
  br i1 %41, label %43, label %42

42:                                               ; preds = %38
  store i32 0, ptr %3, align 4
  br label %117

43:                                               ; preds = %38
  %44 = load i32, ptr %4, align 4
  %45 = call i32 @skip_past_nul(i32 noundef %44)
  %46 = icmp ne i32 %45, 0
  br i1 %46, label %48, label %47

47:                                               ; preds = %43
  store i32 0, ptr %3, align 4
  br label %117

48:                                               ; preds = %43
  %49 = load i32, ptr %4, align 4
  %50 = call i64 @lseek(i32 noundef %49, i64 noundef 8, i32 noundef 1) #8
  %51 = icmp eq i64 %50, -1
  br i1 %51, label %52, label %53

52:                                               ; preds = %48
  store i32 0, ptr %3, align 4
  br label %117

53:                                               ; preds = %48
  %54 = load i32, ptr %4, align 4
  %55 = call i32 @skip_past_nul(i32 noundef %54)
  %56 = icmp ne i32 %55, 0
  br i1 %56, label %58, label %57

57:                                               ; preds = %53
  store i32 0, ptr %3, align 4
  br label %117

58:                                               ; preds = %53
  %59 = load i32, ptr %4, align 4
  %60 = call i32 @read_uint32(i32 noundef %59, ptr noundef %8, i32 noundef 0)
  %61 = icmp ne i32 %60, 0
  br i1 %61, label %63, label %62

62:                                               ; preds = %58
  store i32 0, ptr %3, align 4
  br label %117

63:                                               ; preds = %58
  br label %64

64:                                               ; preds = %63, %26
  %65 = load ptr, ptr %5, align 8
  %66 = icmp ne ptr %65, null
  br i1 %66, label %67, label %71

67:                                               ; preds = %64
  %68 = load ptr, ptr %5, align 8
  %69 = getelementptr inbounds %struct.cli_ctx_tag, ptr %68, i32 0, i32 2
  %70 = load ptr, ptr %69, align 8
  br label %72

71:                                               ; preds = %64
  br label %72

72:                                               ; preds = %71, %67
  %73 = phi ptr [ %70, %67 ], [ null, %71 ]
  %74 = call ptr @cli_gentemp(ptr noundef %73)
  store ptr %74, ptr %10, align 8
  %75 = icmp ne ptr %74, null
  br i1 %75, label %77, label %76

76:                                               ; preds = %72
  store i32 20, ptr %3, align 4
  br label %117

77:                                               ; preds = %72
  %78 = load ptr, ptr %10, align 8
  %79 = call i32 (ptr, i32, ...) @open(ptr noundef %78, i32 noundef 706, i32 noundef 384)
  store i32 %79, ptr %6, align 4
  %80 = load i32, ptr %6, align 4
  %81 = icmp slt i32 %80, 0
  br i1 %81, label %82, label %85

82:                                               ; preds = %77
  %83 = load ptr, ptr %10, align 8
  call void (ptr, ...) @cli_warnmsg(ptr noundef @.str.142, ptr noundef %83)
  %84 = load ptr, ptr %10, align 8
  call void @free(ptr noundef %84) #8
  store i32 9, ptr %3, align 4
  br label %117

85:                                               ; preds = %77
  %86 = load ptr, ptr %10, align 8
  call void (ptr, ...) @cli_dbgmsg(ptr noundef @.str.143, ptr noundef %86)
  %87 = load i32, ptr %4, align 4
  %88 = load i32, ptr %6, align 4
  %89 = load i32, ptr %8, align 4
  call void @ole_copy_file_data(i32 noundef %87, i32 noundef %88, i32 noundef %89)
  %90 = load i32, ptr %6, align 4
  %91 = call i64 @lseek(i32 noundef %90, i64 noundef 0, i32 noundef 0) #8
  %92 = load i32, ptr %6, align 4
  %93 = load ptr, ptr %10, align 8
  %94 = load ptr, ptr %5, align 8
  %95 = call i32 @cli_magic_scan_desc(i32 noundef %92, ptr noundef %93, ptr noundef %94, ptr noundef null, i32 noundef 0)
  store i32 %95, ptr %7, align 4
  %96 = load i32, ptr %6, align 4
  %97 = call i32 @close(i32 noundef %96)
  %98 = load ptr, ptr %5, align 8
  %99 = icmp ne ptr %98, null
  br i1 %99, label %100, label %114

100:                                              ; preds = %85
  %101 = load ptr, ptr %5, align 8
  %102 = getelementptr inbounds %struct.cli_ctx_tag, ptr %101, i32 0, i32 6
  %103 = load ptr, ptr %102, align 8
  %104 = getelementptr inbounds %struct.cl_engine, ptr %103, i32 0, i32 8
  %105 = load i32, ptr %104, align 8
  %106 = icmp ne i32 %105, 0
  br i1 %106, label %114, label %107

107:                                              ; preds = %100
  %108 = load ptr, ptr %10, align 8
  %109 = call i32 @cli_unlink(ptr noundef %108)
  %110 = icmp ne i32 %109, 0
  br i1 %110, label %111, label %113

111:                                              ; preds = %107
  %112 = load ptr, ptr %10, align 8
  call void (ptr, ...) @cli_dbgmsg(ptr noundef @.str.144, ptr noundef %112)
  br label %113

113:                                              ; preds = %111, %107
  br label %114

114:                                              ; preds = %113, %100, %85
  %115 = load ptr, ptr %10, align 8
  call void @free(ptr noundef %115) #8
  %116 = load i32, ptr %7, align 4
  store i32 %116, ptr %3, align 4
  br label %117

117:                                              ; preds = %114, %82, %76, %62, %57, %52, %47, %42, %37, %25, %20, %13
  %118 = load i32, ptr %3, align 4
  ret i32 %118
}