; Function Attrs: nounwind uwtable
define i32 @cli_scan_ole10(i32 noundef %0, ptr noundef %1) local_unnamed_addr #0 {
  %3 = alloca [8192 x i8], align 16
  %4 = alloca [128 x i8], align 16
  %5 = alloca [128 x i8], align 16
  %6 = alloca i32, align 4
  %7 = alloca %struct.stat, align 8
  %8 = icmp slt i32 %0, 0
  br i1 %8, label %read_uint32.exit.thread, label %9

9:                                                ; preds = %2
  %10 = tail call i64 @lseek(i32 noundef %0, i64 noundef 0, i32 noundef 0) #17
  %11 = call i64 @cli_readn(i32 noundef %0, ptr noundef nonnull %6, i64 noundef 4) #17
  %.not.i = icmp eq i64 %11, 4
  br i1 %.not.i, label %12, label %read_uint32.exit.thread

12:                                               ; preds = %9
  %13 = call i32 @fstat(i32 noundef %0, ptr noundef nonnull %7) #17
  %14 = icmp eq i32 %13, -1
  br i1 %14, label %read_uint32.exit.thread, label %15

15:                                               ; preds = %12
  %16 = getelementptr inbounds i8, ptr %7, i64 48
  %17 = load i64, ptr %16, align 8
  %18 = load i32, ptr %6, align 4
  %19 = zext i32 %18 to i64
  %20 = sub nsw i64 %17, %19
  %21 = icmp sgt i64 %20, 3
  br i1 %21, label %22, label %read_uint32.exit52

22:                                               ; preds = %15
  %23 = call i64 @lseek(i32 noundef %0, i64 noundef 2, i32 noundef 1) #17
  %24 = icmp eq i64 %23, -1
  br i1 %24, label %read_uint32.exit.thread, label %25

25:                                               ; preds = %22
  call void @llvm.lifetime.start.p0(i64 128, ptr nonnull %5)
  br label %26

26:                                               ; preds = %29, %25
  %27 = call i64 @cli_readn(i32 noundef %0, ptr noundef nonnull %5, i64 noundef 128) #17
  %28 = add i64 %27, 1
  %or.cond.i = icmp ult i64 %28, 2
  br i1 %or.cond.i, label %skip_past_nul.exit.thread, label %29

skip_past_nul.exit.thread:                        ; preds = %26
  call void @llvm.lifetime.end.p0(i64 128, ptr nonnull %5)
  br label %read_uint32.exit.thread

29:                                               ; preds = %26
  %30 = call ptr @memchr(ptr noundef nonnull %5, i32 noundef 0, i64 noundef %27) #18
  %.not.i42 = icmp eq ptr %30, null
  br i1 %.not.i42, label %26, label %skip_past_nul.exit

skip_past_nul.exit:                               ; preds = %29
  %31 = ptrtoint ptr %30 to i64
  %32 = ptrtoint ptr %5 to i64
  %33 = add i64 %27, %32
  %reass.sub = sub i64 %31, %33
  %34 = add i64 %reass.sub, 1
  %35 = call i64 @lseek(i32 noundef %0, i64 noundef %34, i32 noundef 1) #17
  %36 = icmp slt i64 %35, 0
  call void @llvm.lifetime.end.p0(i64 128, ptr nonnull %5)
  br i1 %36, label %read_uint32.exit.thread, label %37

37:                                               ; preds = %skip_past_nul.exit
  call void @llvm.lifetime.start.p0(i64 128, ptr nonnull %4)
  br label %38

38:                                               ; preds = %41, %37
  %39 = call i64 @cli_readn(i32 noundef %0, ptr noundef nonnull %4, i64 noundef 128) #17
  %40 = add i64 %39, 1
  %or.cond.i44 = icmp ult i64 %40, 2
  br i1 %or.cond.i44, label %skip_past_nul.exit49.thread, label %41

skip_past_nul.exit49.thread:                      ; preds = %38
  call void @llvm.lifetime.end.p0(i64 128, ptr nonnull %4)
  br label %read_uint32.exit.thread

41:                                               ; preds = %38
  %42 = call ptr @memchr(ptr noundef nonnull %4, i32 noundef 0, i64 noundef %39) #18
  %.not.i45 = icmp eq ptr %42, null
  br i1 %.not.i45, label %38, label %skip_past_nul.exit49

skip_past_nul.exit49:                             ; preds = %41
  %43 = ptrtoint ptr %42 to i64
  %44 = ptrtoint ptr %4 to i64
  %45 = add i64 %39, %44
  %reass.sub72 = sub i64 %43, %45
  %46 = add i64 %reass.sub72, 1
  %47 = call i64 @lseek(i32 noundef %0, i64 noundef %46, i32 noundef 1) #17
  %48 = icmp slt i64 %47, 0
  call void @llvm.lifetime.end.p0(i64 128, ptr nonnull %4)
  br i1 %48, label %read_uint32.exit.thread, label %49

49:                                               ; preds = %skip_past_nul.exit49
  %50 = call i64 @lseek(i32 noundef %0, i64 noundef 8, i32 noundef 1) #17
  %51 = icmp eq i64 %50, -1
  br i1 %51, label %read_uint32.exit.thread, label %52

52:                                               ; preds = %49
  %53 = call fastcc i32 @skip_past_nul(i32 noundef %0), !range !5
  %.not36 = icmp eq i32 %53, 0
  br i1 %.not36, label %read_uint32.exit.thread, label %54

54:                                               ; preds = %52
  %55 = call i64 @cli_readn(i32 noundef %0, ptr noundef nonnull %6, i64 noundef 4) #17
  %.not.i50 = icmp eq i64 %55, 4
  br i1 %.not.i50, label %read_uint32.exit52, label %read_uint32.exit.thread

read_uint32.exit52:                               ; preds = %54, %15
  %.not38 = icmp eq ptr %1, null
  br i1 %.not38, label %59, label %56

56:                                               ; preds = %read_uint32.exit52
  %57 = getelementptr inbounds i8, ptr %1, i64 16
  %58 = load ptr, ptr %57, align 8
  br label %59

59:                                               ; preds = %read_uint32.exit52, %56
  %60 = phi ptr [ %58, %56 ], [ null, %read_uint32.exit52 ]
  %61 = call ptr @cli_gentemp(ptr noundef %60) #17
  %.not39 = icmp eq ptr %61, null
  br i1 %.not39, label %read_uint32.exit.thread, label %62

62:                                               ; preds = %59
  %63 = call i32 (ptr, i32, ...) @open(ptr noundef nonnull %61, i32 noundef 706, i32 noundef 384) #17
  %64 = icmp slt i32 %63, 0
  br i1 %64, label %65, label %66

65:                                               ; preds = %62
  call void (ptr, ...) @cli_warnmsg(ptr noundef nonnull @.str.142, ptr noundef nonnull %61) #17
  call void @free(ptr noundef nonnull %61) #17
  br label %read_uint32.exit.thread

66:                                               ; preds = %62
  call void (ptr, ...) @cli_dbgmsg(ptr noundef nonnull @.str.143, ptr noundef nonnull %61) #17
  %67 = load i32, ptr %6, align 4
  call void @llvm.lifetime.start.p0(i64 8192, ptr nonnull %3)
  %.not16.i = icmp eq i32 %67, 0
  br i1 %.not16.i, label %ole_copy_file_data.exit, label %.lr.ph.i

.lr.ph.i:                                         ; preds = %66, %71
  %.017.i = phi i32 [ %73, %71 ], [ %67, %66 ]
  %68 = call i32 @llvm.umin.i32(i32 %.017.i, i32 8192)
  %69 = zext nneg i32 %68 to i64
  %70 = call i64 @cli_readn(i32 noundef %0, ptr noundef nonnull %3, i64 noundef %69) #17
  %.not14.i = icmp eq i64 %70, %69
  br i1 %.not14.i, label %71, label %ole_copy_file_data.exit

71:                                               ; preds = %.lr.ph.i
  %72 = call i64 @cli_writen(i32 noundef %63, ptr noundef nonnull %3, i64 noundef %69) #17
  %.not15.i = icmp ne i64 %72, %69
  %73 = sub i32 %.017.i, %68
  %.not.i53 = icmp eq i32 %73, 0
  %or.cond.i54 = or i1 %.not.i53, %.not15.i
  br i1 %or.cond.i54, label %ole_copy_file_data.exit, label %.lr.ph.i

ole_copy_file_data.exit:                          ; preds = %.lr.ph.i, %71, %66
  call void @llvm.lifetime.end.p0(i64 8192, ptr nonnull %3)
  %74 = call i64 @lseek(i32 noundef %63, i64 noundef 0, i32 noundef 0) #17
  %75 = call i32 @cli_magic_scan_desc(i32 noundef %63, ptr noundef nonnull %61, ptr noundef %1, ptr noundef null, i32 noundef 0) #17
  %76 = call i32 @close(i32 noundef %63) #17
  br i1 %.not38, label %85, label %77

77:                                               ; preds = %ole_copy_file_data.exit
  %78 = getelementptr inbounds i8, ptr %1, i64 48
  %79 = load ptr, ptr %78, align 8
  %80 = getelementptr inbounds i8, ptr %79, i64 40
  %81 = load i32, ptr %80, align 8
  %.not40 = icmp eq i32 %81, 0
  br i1 %.not40, label %82, label %85

82:                                               ; preds = %77
  %83 = call i32 @cli_unlink(ptr noundef nonnull %61) #17
  %.not41 = icmp eq i32 %83, 0
  br i1 %.not41, label %85, label %84

84:                                               ; preds = %82
  call void (ptr, ...) @cli_dbgmsg(ptr noundef nonnull @.str.144, ptr noundef nonnull %61) #17
  br label %85

85:                                               ; preds = %82, %84, %77, %ole_copy_file_data.exit
  call void @free(ptr noundef %61) #17
  br label %read_uint32.exit.thread

read_uint32.exit.thread:                          ; preds = %54, %9, %skip_past_nul.exit49.thread, %skip_past_nul.exit.thread, %59, %52, %49, %skip_past_nul.exit49, %skip_past_nul.exit, %22, %12, %2, %85, %65
  %.0 = phi i32 [ 9, %65 ], [ %75, %85 ], [ 0, %2 ], [ 11, %12 ], [ 0, %22 ], [ 0, %skip_past_nul.exit ], [ 0, %skip_past_nul.exit49 ], [ 0, %49 ], [ 0, %52 ], [ 20, %59 ], [ 0, %skip_past_nul.exit.thread ], [ 0, %skip_past_nul.exit49.thread ], [ 0, %9 ], [ 0, %54 ]
  ret i32 %.0
}